target datalayout = "e-m:e-p270:32:32-p271:32:32-p272:64:64-i64:64-i128:128-f80:128-n8:16:32:64-S128"
target triple = "x86_64-pc-linux-gnu"

%"class.cv::utils::trace::details::Region" = type <{ ptr, i32, [4 x i8] }>
%"class.cv::Matx.0" = type { [6 x double] }
%"class.cv::Point_" = type { float, float }

; Function Attrs: inlinehint mustprogress nounwind uwtable
define linkonce_odr hidden void @_ZN2cv5utils5trace7details6RegionD2Ev(ptr noundef nonnull align 8 dereferenceable(12) %0) unnamed_addr #6 comdat align 2 personality ptr @__gxx_personality_v0 {
  %2 = alloca ptr, align 8
  store ptr %0, ptr %2, align 8, !tbaa !509
  %3 = load ptr, ptr %2, align 8
  %4 = getelementptr inbounds nuw %"class.cv::utils::trace::details::Region", ptr %3, i32 0, i32 1
  %5 = load i32, ptr %4, align 8, !tbaa !511
  %6 = icmp ne i32 %5, 0
  br i1 %6, label %7, label %9

7:                                                ; preds = %1
  invoke void @_ZN2cv5utils5trace7details6Region7destroyEv(ptr noundef nonnull align 8 dereferenceable(12) %3)
          to label %8 unwind label %10

8:                                                ; preds = %7
  br label %9

9:                                                ; preds = %8, %1
  ret void

10:                                               ; preds = %7
  %11 = landingpad { ptr, i32 }
          catch ptr null
  %12 = extractvalue { ptr, i32 } %11, 0
  call void @__clang_call_terminate(ptr %12) #23
  unreachable
}

; Function Attrs: inlinehint mustprogress nounwind uwtable
define linkonce_odr hidden void @_ZN2cv4MatxIdLi2ELi3EEC2Edddddd(ptr noundef nonnull align 8 dereferenceable(48) %0, double noundef %1, double noundef %2, double noundef %3, double noundef %4, double noundef %5, double noundef %6) unnamed_addr #6 comdat align 2 {
  %8 = alloca ptr, align 8
  %9 = alloca double, align 8
  %10 = alloca double, align 8
  %11 = alloca double, align 8
  %12 = alloca double, align 8
  %13 = alloca double, align 8
  %14 = alloca double, align 8
  %15 = alloca i32, align 4
  store ptr %0, ptr %8, align 8, !tbaa !548
  store double %1, ptr %9, align 8, !tbaa !37
  store double %2, ptr %10, align 8, !tbaa !37
  store double %3, ptr %11, align 8, !tbaa !37
  store double %4, ptr %12, align 8, !tbaa !37
  store double %5, ptr %13, align 8, !tbaa !37
  store double %6, ptr %14, align 8, !tbaa !37
  %16 = load ptr, ptr %8, align 8
  %17 = load double, ptr %9, align 8, !tbaa !37
  %18 = getelementptr inbounds nuw %"class.cv::Matx.0", ptr %16, i32 0, i32 0
  %19 = getelementptr inbounds [6 x double], ptr %18, i64 0, i64 0
  store double %17, ptr %19, align 8, !tbaa !37
  %20 = load double, ptr %10, align 8, !tbaa !37
  %21 = getelementptr inbounds nuw %"class.cv::Matx.0", ptr %16, i32 0, i32 0
  %22 = getelementptr inbounds [6 x double], ptr %21, i64 0, i64 1
  store double %20, ptr %22, align 8, !tbaa !37
  %23 = load double, ptr %11, align 8, !tbaa !37
  %24 = getelementptr inbounds nuw %"class.cv::Matx.0", ptr %16, i32 0, i32 0
  %25 = getelementptr inbounds [6 x double], ptr %24, i64 0, i64 2
  store double %23, ptr %25, align 8, !tbaa !37
  %26 = load double, ptr %12, align 8, !tbaa !37
  %27 = getelementptr inbounds nuw %"class.cv::Matx.0", ptr %16, i32 0, i32 0
  %28 = getelementptr inbounds [6 x double], ptr %27, i64 0, i64 3
  store double %26, ptr %28, align 8, !tbaa !37
  %29 = load double, ptr %13, align 8, !tbaa !37
  %30 = getelementptr inbounds nuw %"class.cv::Matx.0", ptr %16, i32 0, i32 0
  %31 = getelementptr inbounds [6 x double], ptr %30, i64 0, i64 4
  store double %29, ptr %31, align 8, !tbaa !37
  %32 = load double, ptr %14, align 8, !tbaa !37
  %33 = getelementptr inbounds nuw %"class.cv::Matx.0", ptr %16, i32 0, i32 0
  %34 = getelementptr inbounds [6 x double], ptr %33, i64 0, i64 5
  store double %32, ptr %34, align 8, !tbaa !37
  call void @llvm.lifetime.start.p0(i64 4, ptr %15) #21
  store i32 6, ptr %15, align 4, !tbaa !12
  br label %35

35:                                               ; preds = %44, %7
  %36 = load i32, ptr %15, align 4, !tbaa !12
  %37 = icmp slt i32 %36, 6
  br i1 %37, label %39, label %38

38:                                               ; preds = %35
  call void @llvm.lifetime.end.p0(i64 4, ptr %15) #21
  br label %47

39:                                               ; preds = %35
  %40 = getelementptr inbounds nuw %"class.cv::Matx.0", ptr %16, i32 0, i32 0
  %41 = load i32, ptr %15, align 4, !tbaa !12
  %42 = sext i32 %41 to i64
  %43 = getelementptr inbounds [6 x double], ptr %40, i64 0, i64 %42
  store double 0.000000e+00, ptr %43, align 8, !tbaa !37
  br label %44

44:                                               ; preds = %39
  %45 = load i32, ptr %15, align 4, !tbaa !12
  %46 = add nsw i32 %45, 1
  store i32 %46, ptr %15, align 4, !tbaa !12
  br label %35, !llvm.loop !550

47:                                               ; preds = %38
  ret void
}

; Function Attrs: mustprogress uwtable
define void @_ZN2cv20getRotationMatrix2D_ENS_6Point_IfEEdd(ptr dead_on_unwind noalias writable sret(%"class.cv::Matx.0") align 8 %0, <2 x float> %1, double noundef %2, double noundef %3) #12 personality ptr @__gxx_personality_v0 {
  %5 = alloca %"class.cv::Point_", align 4
  %6 = alloca double, align 8
  %7 = alloca double, align 8
  %8 = alloca %"class.cv::utils::trace::details::Region", align 8
  %9 = alloca double, align 8
  %10 = alloca double, align 8
  %11 = alloca ptr, align 8
  %12 = alloca i32, align 4
  store <2 x float> %1, ptr %5, align 4
  store double %2, ptr %6, align 8, !tbaa !37
  store double %3, ptr %7, align 8, !tbaa !37
  call void @llvm.lifetime.start.p0(i64 16, ptr %8) #21
  call void @_ZN2cv5utils5trace7details6RegionC1ERKNS3_21LocationStaticStorageE(ptr noundef nonnull align 8 dereferenceable(12) %8, ptr noundef nonnull align 8 dereferenceable(32) @_ZZN2cv20getRotationMatrix2D_ENS_6Point_IfEEddE26__cv_trace_location_fn3371)
  %13 = load double, ptr %6, align 8, !tbaa !37
  %14 = fmul double %13, 0x3F91DF46A2529D39
  store double %14, ptr %6, align 8, !tbaa !37
  call void @llvm.lifetime.start.p0(i64 8, ptr %9) #21
  %15 = load double, ptr %6, align 8, !tbaa !37
  %16 = call double @cos(double noundef %15) #21, !tbaa !12
  %17 = load double, ptr %7, align 8, !tbaa !37
  %18 = fmul double %16, %17
  store double %18, ptr %9, align 8, !tbaa !37
  call void @llvm.lifetime.start.p0(i64 8, ptr %10) #21
  %19 = load double, ptr %6, align 8, !tbaa !37
  %20 = call double @sin(double noundef %19) #21, !tbaa !12
  %21 = load double, ptr %7, align 8, !tbaa !37
  %22 = fmul double %20, %21
  store double %22, ptr %10, align 8, !tbaa !37
  %23 = load double, ptr %9, align 8, !tbaa !37
  %24 = load double, ptr %10, align 8, !tbaa !37
  %25 = load double, ptr %9, align 8, !tbaa !37
  %26 = fsub double 1.000000e+00, %25
  %27 = getelementptr inbounds nuw %"class.cv::Point_", ptr %5, i32 0, i32 0
  %28 = load float, ptr %27, align 4, !tbaa !545
  %29 = fpext float %28 to double
  %30 = load double, ptr %10, align 8, !tbaa !37
  %31 = getelementptr inbounds nuw %"class.cv::Point_", ptr %5, i32 0, i32 1
  %32 = load float, ptr %31, align 4, !tbaa !547
  %33 = fpext float %32 to double
  %34 = fmul double %30, %33
  %35 = fneg double %34
  %36 = call double @llvm.fmuladd.f64(double %26, double %29, double %35)
  %37 = load double, ptr %10, align 8, !tbaa !37
  %38 = fneg double %37
  %39 = load double, ptr %9, align 8, !tbaa !37
  %40 = load double, ptr %10, align 8, !tbaa !37
  %41 = getelementptr inbounds nuw %"class.cv::Point_", ptr %5, i32 0, i32 0
  %42 = load float, ptr %41, align 4, !tbaa !545
  %43 = fpext float %42 to double
  %44 = load double, ptr %9, align 8, !tbaa !37
  %45 = fsub double 1.000000e+00, %44
  %46 = getelementptr inbounds nuw %"class.cv::Point_", ptr %5, i32 0, i32 1
  %47 = load float, ptr %46, align 4, !tbaa !547
  %48 = fpext float %47 to double
  %49 = fmul double %45, %48
  %50 = call double @llvm.fmuladd.f64(double %40, double %43, double %49)
  invoke void @_ZN2cv4MatxIdLi2ELi3EEC2Edddddd(ptr noundef nonnull align 8 dereferenceable(48) %0, double noundef %23, double noundef %24, double noundef %36, double noundef %38, double noundef %39, double noundef %50)
          to label %51 unwind label %52

51:                                               ; preds = %4
  call void @llvm.lifetime.end.p0(i64 8, ptr %10) #21
  call void @llvm.lifetime.end.p0(i64 8, ptr %9) #21
  call void @_ZN2cv5utils5trace7details6RegionD2Ev(ptr noundef nonnull align 8 dereferenceable(12) %8) #21
  call void @llvm.lifetime.end.p0(i64 16, ptr %8) #21
  ret void

52:                                               ; preds = %4
  %53 = landingpad { ptr, i32 }
          cleanup
  %54 = extractvalue { ptr, i32 } %53, 0
  store ptr %54, ptr %11, align 8
  %55 = extractvalue { ptr, i32 } %53, 1
  store i32 %55, ptr %12, align 4
  call void @llvm.lifetime.end.p0(i64 8, ptr %10) #21
  call void @llvm.lifetime.end.p0(i64 8, ptr %9) #21
  call void @_ZN2cv5utils5trace7details6RegionD2Ev(ptr noundef nonnull align 8 dereferenceable(12) %8) #21
  call void @llvm.lifetime.end.p0(i64 16, ptr %8) #21
  br label %56

56:                                               ; preds = %52
  %57 = load ptr, ptr %11, align 8
  %58 = load i32, ptr %12, align 4
  %59 = insertvalue { ptr, i32 } poison, ptr %57, 0
  %60 = insertvalue { ptr, i32 } %59, i32 %58, 1
  resume { ptr, i32 } %60
}