; Function Attrs: mustprogress uwtable
define void @_ZN2cv20getRotationMatrix2D_ENS_6Point_IfEEdd(ptr dead_on_unwind noalias writable writeonly sret(%"class.cv::Matx.0") align 8 captures(none) initializes((0, 48)) %0, <2 x float> %1, double noundef %2, double noundef %3) local_unnamed_addr #12 personality ptr @__gxx_personality_v0 {
  %5 = alloca %"class.cv::utils::trace::details::Region", align 8
  call void @llvm.lifetime.start.p0(i64 16, ptr nonnull %5) #24
  call void @_ZN2cv5utils5trace7details6RegionC1ERKNS3_21LocationStaticStorageE(ptr noundef nonnull align 8 dereferenceable(12) %5, ptr noundef nonnull align 8 dereferenceable(32) @_ZZN2cv20getRotationMatrix2D_ENS_6Point_IfEEddE26__cv_trace_location_fn3371)
  %6 = fmul double %2, 0x3F91DF46A2529D39
  %7 = call double @cos(double noundef %6) #24, !tbaa !28
  %8 = fmul double %3, %7
  %9 = call double @sin(double noundef %6) #24, !tbaa !28
  %10 = fmul double %3, %9
  %11 = fsub double 1.000000e+00, %8
  %.sroa.0.0.vec.extract = extractelement <2 x float> %1, i64 0
  %12 = fpext float %.sroa.0.0.vec.extract to double
  %.sroa.0.4.vec.extract = extractelement <2 x float> %1, i64 1
  %13 = fpext float %.sroa.0.4.vec.extract to double
  %14 = fneg double %13
  %15 = fmul double %10, %14
  %16 = call double @llvm.fmuladd.f64(double %11, double %12, double %15)
  %17 = fneg double %10
  %18 = fmul double %11, %13
  %19 = call double @llvm.fmuladd.f64(double %10, double %12, double %18)
  store double %8, ptr %0, align 8, !tbaa !54
  %20 = getelementptr inbounds nuw i8, ptr %0, i64 8
  store double %10, ptr %20, align 8, !tbaa !54
  %21 = getelementptr inbounds nuw i8, ptr %0, i64 16
  store double %16, ptr %21, align 8, !tbaa !54
  %22 = getelementptr inbounds nuw i8, ptr %0, i64 24
  store double %17, ptr %22, align 8, !tbaa !54
  %23 = getelementptr inbounds nuw i8, ptr %0, i64 32
  store double %8, ptr %23, align 8, !tbaa !54
  %24 = getelementptr inbounds nuw i8, ptr %0, i64 40
  store double %19, ptr %24, align 8, !tbaa !54
  %25 = getelementptr inbounds nuw i8, ptr %5, i64 8
  %26 = load i32, ptr %25, align 8, !tbaa !64
  %.not.i = icmp eq i32 %26, 0
  br i1 %.not.i, label %_ZN2cv5utils5trace7details6RegionD2Ev.exit, label %27

27:                                               ; preds = %4
  invoke void @_ZN2cv5utils5trace7details6Region7destroyEv(ptr noundef nonnull align 8 dereferenceable(12) %5)
          to label %_ZN2cv5utils5trace7details6RegionD2Ev.exit unwind label %28

28:                                               ; preds = %27
  %29 = landingpad { ptr, i32 }
          catch ptr null
  %30 = extractvalue { ptr, i32 } %29, 0
  call void @__clang_call_terminate(ptr %30) #27
  unreachable

_ZN2cv5utils5trace7details6RegionD2Ev.exit:       ; preds = %4, %27
  call void @llvm.lifetime.end.p0(i64 16, ptr nonnull %5) #24
  ret void
}